; ModuleID = '11/840.c'
source_filename = "11/840.c"
target datalayout = "e-m:e-p270:32:32-p271:32:32-p272:64:64-i64:64-f80:128-n8:16:32:64-S128"
target triple = "x86_64-pc-linux-gnu"

@.str = private unnamed_addr constant [9 x i8] c"%d %d %d\00", align 1
@.str.1 = private unnamed_addr constant [3 x i8] c"%d\00", align 1

; Function Attrs: noinline nounwind uwtable
define dso_local i32 @run(i32 %0) #0 {
  %2 = alloca i32, align 4
  %3 = alloca i32, align 4
  store i32 %0, i32* %3, align 4
  %4 = load i32, i32* %3, align 4
  %5 = srem i32 %4, 400
  %6 = icmp eq i32 %5, 0
  br i1 %6, label %7, label %8

7:                                                ; preds = %1
  store i32 1, i32* %2, align 4
  br label %19

8:                                                ; preds = %1
  %9 = load i32, i32* %3, align 4
  %10 = srem i32 %9, 100
  %11 = icmp eq i32 %10, 0
  br i1 %11, label %12, label %13

12:                                               ; preds = %8
  store i32 0, i32* %2, align 4
  br label %19

13:                                               ; preds = %8
  %14 = load i32, i32* %3, align 4
  %15 = srem i32 %14, 4
  %16 = icmp eq i32 %15, 0
  br i1 %16, label %17, label %18

17:                                               ; preds = %13
  store i32 1, i32* %2, align 4
  br label %19

18:                                               ; preds = %13
  store i32 0, i32* %2, align 4
  br label %19

19:                                               ; preds = %18, %17, %12, %7
  %20 = load i32, i32* %2, align 4
  ret i32 %20
}

; Function Attrs: noinline nounwind uwtable
define dso_local i32 @mon(i32 %0, i32 %1) #0 {
  %3 = alloca i32, align 4
  %4 = alloca i32, align 4
  %5 = alloca i32, align 4
  store i32 %0, i32* %4, align 4
  store i32 %1, i32* %5, align 4
  %6 = load i32, i32* %4, align 4
  switch i32 %6, label %9 [
    i32 1, label %7
    i32 3, label %7
    i32 5, label %7
    i32 7, label %7
    i32 8, label %7
    i32 10, label %7
    i32 4, label %8
    i32 6, label %8
    i32 9, label %8
    i32 11, label %8
  ]

7:                                                ; preds = %2, %2, %2, %2, %2, %2
  store i32 31, i32* %3, align 4
  br label %15

8:                                                ; preds = %2, %2, %2, %2
  store i32 30, i32* %3, align 4
  br label %15

9:                                                ; preds = %2
  %10 = load i32, i32* %5, align 4
  %11 = call i32 @run(i32 %10)
  %12 = icmp ne i32 %11, 0
  br i1 %12, label %13, label %14

13:                                               ; preds = %9
  store i32 29, i32* %3, align 4
  br label %15

14:                                               ; preds = %9
  store i32 28, i32* %3, align 4
  br label %15

15:                                               ; preds = %14, %13, %8, %7
  %16 = load i32, i32* %3, align 4
  ret i32 %16
}

; Function Attrs: noinline nounwind uwtable
define dso_local i32 @main() #0 {
  %1 = alloca i32, align 4
  %2 = alloca i32, align 4
  %3 = alloca i32, align 4
  %4 = alloca i32, align 4
  %5 = alloca i32, align 4
  %6 = alloca i32, align 4
  store i32 0, i32* %1, align 4
  %7 = call i32 (i8*, ...) @__isoc99_scanf(i8* getelementptr inbounds ([9 x i8], [9 x i8]* @.str, i64 0, i64 0), i32* %2, i32* %3, i32* %4)
  store i32 0, i32* %5, align 4
  store i32 1, i32* %6, align 4
  br label %8

8:                                                ; preds = %18, %0
  %9 = load i32, i32* %6, align 4
  %10 = load i32, i32* %3, align 4
  %11 = icmp slt i32 %9, %10
  br i1 %11, label %12, label %21

12:                                               ; preds = %8
  %13 = load i32, i32* %5, align 4
  %14 = load i32, i32* %6, align 4
  %15 = load i32, i32* %2, align 4
  %16 = call i32 @mon(i32 %14, i32 %15)
  %17 = add nsw i32 %13, %16
  store i32 %17, i32* %5, align 4
  br label %18

18:                                               ; preds = %12
  %19 = load i32, i32* %6, align 4
  %20 = add nsw i32 %19, 1
  store i32 %20, i32* %6, align 4
  br label %8

21:                                               ; preds = %8
  %22 = load i32, i32* %5, align 4
  %23 = load i32, i32* %4, align 4
  %24 = add nsw i32 %22, %23
  store i32 %24, i32* %5, align 4
  %25 = load i32, i32* %5, align 4
  %26 = call i32 (i8*, ...) @printf(i8* getelementptr inbounds ([3 x i8], [3 x i8]* @.str.1, i64 0, i64 0), i32 %25)
  ret i32 0
}

declare dso_local i32 @__isoc99_scanf(i8*, ...) #1

declare dso_local i32 @printf(i8*, ...) #1


!llvm.module.flags = !{!0}
!llvm.ident = !{!1}

!0 = !{i32 1, !"wchar_size", i32 4}
!1 = !{!"clang version 10.0.0-4ubuntu1 "}
